; Function Attrs: nounwind uwtable
define ptr @l_Lean_Loop_forIn_loop___at___private_Lean_Meta_Instances_0__Lean_Meta_computeSynthOrder___spec__7___lambda__1___boxed(ptr noundef %0, ptr noundef %1, ptr noundef %2, ptr noundef %3, ptr noundef %4, ptr noundef %5, ptr noundef %6, ptr noundef %7, ptr noundef %8, ptr noundef %9, ptr noundef %10, ptr noundef %11) #1 {
  %13 = getelementptr i8, ptr %3, i64 8
  %.val = load i64, ptr %13, align 8, !tbaa !12
  %14 = ptrtoint ptr %3 to i64
  %15 = and i64 %14, 1
  %.not = icmp eq i64 %15, 0
  br i1 %.not, label %16, label %lean_dec.exit19

16:                                               ; preds = %12
  %17 = load i32, ptr %3, align 4, !tbaa !4
  %18 = icmp sgt i32 %17, 1
  br i1 %18, label %19, label %21, !prof !11

19:                                               ; preds = %16
  %20 = add nsw i32 %17, -1
  store i32 %20, ptr %3, align 4, !tbaa !4
  br label %lean_dec.exit19

21:                                               ; preds = %16
  %.not.i = icmp eq i32 %17, 0
  br i1 %.not.i, label %lean_dec.exit19, label %22

22:                                               ; preds = %21
  tail call void @lean_dec_ref_cold(ptr noundef nonnull %3) #6
  br label %lean_dec.exit19

lean_dec.exit19:                                  ; preds = %22, %21, %19, %12
  %23 = tail call ptr @l_Lean_Loop_forIn_loop___at___private_Lean_Meta_Instances_0__Lean_Meta_computeSynthOrder___spec__7___lambda__1(ptr noundef %0, ptr noundef %1, ptr noundef %2, i64 noundef %.val, ptr noundef %4, ptr noundef %5, ptr noundef %6, ptr noundef %7, ptr noundef %8, ptr noundef %9, ptr noundef %10, ptr noundef %11)
  %24 = ptrtoint ptr %5 to i64
  %25 = and i64 %24, 1
  %.not26 = icmp eq i64 %25, 0
  br i1 %.not26, label %26, label %lean_dec.exit18

26:                                               ; preds = %lean_dec.exit19
  %27 = load i32, ptr %5, align 4, !tbaa !4
  %28 = icmp sgt i32 %27, 1
  br i1 %28, label %29, label %31, !prof !11

29:                                               ; preds = %26
  %30 = add nsw i32 %27, -1
  store i32 %30, ptr %5, align 4, !tbaa !4
  br label %lean_dec.exit18

31:                                               ; preds = %26
  %.not.i20 = icmp eq i32 %27, 0
  br i1 %.not.i20, label %lean_dec.exit18, label %32

32:                                               ; preds = %31
  tail call void @lean_dec_ref_cold(ptr noundef nonnull %5) #6
  br label %lean_dec.exit18

lean_dec.exit18:                                  ; preds = %32, %31, %29, %lean_dec.exit19
  %33 = ptrtoint ptr %1 to i64
  %34 = and i64 %33, 1
  %.not27 = icmp eq i64 %34, 0
  br i1 %.not27, label %35, label %lean_dec.exit17

35:                                               ; preds = %lean_dec.exit18
  %36 = load i32, ptr %1, align 4, !tbaa !4
  %37 = icmp sgt i32 %36, 1
  br i1 %37, label %38, label %40, !prof !11

38:                                               ; preds = %35
  %39 = add nsw i32 %36, -1
  store i32 %39, ptr %1, align 4, !tbaa !4
  br label %lean_dec.exit17

40:                                               ; preds = %35
  %.not.i22 = icmp eq i32 %36, 0
  br i1 %.not.i22, label %lean_dec.exit17, label %41

41:                                               ; preds = %40
  tail call void @lean_dec_ref_cold(ptr noundef nonnull %1) #6
  br label %lean_dec.exit17

lean_dec.exit17:                                  ; preds = %41, %40, %38, %lean_dec.exit18
  %42 = ptrtoint ptr %0 to i64
  %43 = and i64 %42, 1
  %.not28 = icmp eq i64 %43, 0
  br i1 %.not28, label %44, label %lean_dec.exit

44:                                               ; preds = %lean_dec.exit17
  %45 = load i32, ptr %0, align 4, !tbaa !4
  %46 = icmp sgt i32 %45, 1
  br i1 %46, label %47, label %49, !prof !11

47:                                               ; preds = %44
  %48 = add nsw i32 %45, -1
  store i32 %48, ptr %0, align 4, !tbaa !4
  br label %lean_dec.exit

49:                                               ; preds = %44
  %.not.i24 = icmp eq i32 %45, 0
  br i1 %.not.i24, label %lean_dec.exit, label %50

50:                                               ; preds = %49
  tail call void @lean_dec_ref_cold(ptr noundef nonnull %0) #6
  br label %lean_dec.exit

lean_dec.exit:                                    ; preds = %50, %49, %47, %lean_dec.exit17
  ret ptr %23
}